target datalayout = "e-m:e-p270:32:32-p271:32:32-p272:64:64-i64:64-i128:128-f80:128-n8:16:32:64-S128"
target triple = "x86_64-pc-linux-gnu"

%"class.open3d::core::Dtype" = type { i32, i64, [16 x i8] }
%"class.open3d::core::Device" = type { i32, i32 }

@.str = private unnamed_addr constant [144 x i8] c"generated/home/dtcxzyw/WorkSpace/Projects/compilers/llvm-opt-benchmark/bench/open3d/Open3D/cpp/open3d/t/pipelines/kernel/FillInLinearSystem.cpp\00", align 1
@_ZN6open3d4core7Float32E = external global %"class.open3d::core::Dtype", align 8
@.str.1 = private unnamed_addr constant [40 x i8] c"AtA should have the same device as Atb.\00", align 1
@.str.5 = private unnamed_addr constant [49 x i8] c"Not compiled with CUDA, but CUDA device is used.\00", align 1
@.str.6 = private unnamed_addr constant [21 x i8] c"Unimplemented device\00", align 1

; Function Attrs: inlinehint mustprogress nounwind ssp uwtable
define linkonce_odr noundef i32 @_ZNK6open3d4core6Device7GetTypeEv(ptr noundef nonnull align 4 dereferenceable(8) %0) #8 comdat align 2 {
  %2 = alloca ptr, align 8
  store ptr %0, ptr %2, align 8, !tbaa !42
  %3 = load ptr, ptr %2, align 8
  %4 = getelementptr inbounds nuw %"class.open3d::core::Device", ptr %3, i32 0, i32 0
  %5 = load i32, ptr %4, align 4, !tbaa !44
  ret i32 %5
}

; Function Attrs: inlinehint mustprogress ssp uwtable
define linkonce_odr noundef zeroext i1 @_ZNK6open3d4core8IsDevice6IsCUDAEv(ptr noundef nonnull align 8 dereferenceable(8) %0) #4 comdat align 2 {
  %2 = alloca ptr, align 8
  %3 = alloca %"class.open3d::core::Device", align 4
  store ptr %0, ptr %2, align 8, !tbaa !17
  %4 = load ptr, ptr %2, align 8
  call void @llvm.lifetime.start.p0(i64 8, ptr %3) #15
  %5 = load ptr, ptr %4, align 8, !tbaa !13
  %6 = getelementptr inbounds ptr, ptr %5, i64 2
  %7 = load ptr, ptr %6, align 8
  %8 = call i64 %7(ptr noundef nonnull align 8 dereferenceable(8) %4)
  store i64 %8, ptr %3, align 4
  %9 = call noundef i32 @_ZNK6open3d4core6Device7GetTypeEv(ptr noundef nonnull align 4 dereferenceable(8) %3)
  %10 = icmp eq i32 %9, 1
  call void @llvm.lifetime.end.p0(i64 8, ptr %3) #15
  ret i1 %10
}

; Function Attrs: inlinehint mustprogress ssp uwtable
define linkonce_odr noundef zeroext i1 @_ZNK6open3d4core8IsDevice5IsCPUEv(ptr noundef nonnull align 8 dereferenceable(8) %0) #4 comdat align 2 {
  %2 = alloca ptr, align 8
  %3 = alloca %"class.open3d::core::Device", align 4
  store ptr %0, ptr %2, align 8, !tbaa !17
  %4 = load ptr, ptr %2, align 8
  call void @llvm.lifetime.start.p0(i64 8, ptr %3) #15
  %5 = load ptr, ptr %4, align 8, !tbaa !13
  %6 = getelementptr inbounds ptr, ptr %5, i64 2
  %7 = load ptr, ptr %6, align 8
  %8 = call i64 %7(ptr noundef nonnull align 8 dereferenceable(8) %4)
  store i64 %8, ptr %3, align 4
  %9 = call noundef i32 @_ZNK6open3d4core6Device7GetTypeEv(ptr noundef nonnull align 4 dereferenceable(8) %3)
  %10 = icmp eq i32 %9, 0
  call void @llvm.lifetime.end.p0(i64 8, ptr %3) #15
  ret i1 %10
}

; Function Attrs: mustprogress ssp uwtable
define void @_ZN6open3d1t9pipelines6kernel25FillInSLACRegularizerTermERNS_4core6TensorES5_S5_RKS4_S7_S7_S7_S7_fii(ptr noundef nonnull align 8 dereferenceable(160) %0, ptr noundef nonnull align 8 dereferenceable(160) %1, ptr noundef nonnull align 8 dereferenceable(160) %2, ptr noundef nonnull align 8 dereferenceable(160) %3, ptr noundef nonnull align 8 dereferenceable(160) %4, ptr noundef nonnull align 8 dereferenceable(160) %5, ptr noundef nonnull align 8 dereferenceable(160) %6, ptr noundef nonnull align 8 dereferenceable(160) %7, float noundef %8, i32 noundef %9, i32 noundef %10) #0 {
  %12 = alloca ptr, align 8
  %13 = alloca ptr, align 8
  %14 = alloca ptr, align 8
  %15 = alloca ptr, align 8
  %16 = alloca ptr, align 8
  %17 = alloca ptr, align 8
  %18 = alloca ptr, align 8
  %19 = alloca ptr, align 8
  %20 = alloca float, align 4
  %21 = alloca i32, align 4
  %22 = alloca i32, align 4
  %23 = alloca %"class.open3d::core::Device", align 4
  %24 = alloca %"class.open3d::core::Device", align 4
  store ptr %0, ptr %12, align 8, !tbaa !4
  store ptr %1, ptr %13, align 8, !tbaa !4
  store ptr %2, ptr %14, align 8, !tbaa !4
  store ptr %3, ptr %15, align 8, !tbaa !4
  store ptr %4, ptr %16, align 8, !tbaa !4
  store ptr %5, ptr %17, align 8, !tbaa !4
  store ptr %6, ptr %18, align 8, !tbaa !4
  store ptr %7, ptr %19, align 8, !tbaa !4
  store float %8, ptr %20, align 4, !tbaa !11
  store i32 %9, ptr %21, align 4, !tbaa !9
  store i32 %10, ptr %22, align 4, !tbaa !9
  %25 = load ptr, ptr %12, align 8, !tbaa !4
  call void @_ZN6open3d4core12tensor_check18AssertTensorDtype_EPKciS3_RKNS0_6TensorERKNS0_5DtypeE(ptr noundef @.str, i32 noundef 144, ptr noundef @__PRETTY_FUNCTION__._ZN6open3d1t9pipelines6kernel25FillInSLACRegularizerTermERNS_4core6TensorES5_S5_RKS4_S7_S7_S7_S7_fii, ptr noundef nonnull align 8 dereferenceable(160) %25, ptr noundef nonnull align 8 dereferenceable(32) @_ZN6open3d4core7Float32E)
  %26 = load ptr, ptr %13, align 8, !tbaa !4
  call void @_ZN6open3d4core12tensor_check18AssertTensorDtype_EPKciS3_RKNS0_6TensorERKNS0_5DtypeE(ptr noundef @.str, i32 noundef 145, ptr noundef @__PRETTY_FUNCTION__._ZN6open3d1t9pipelines6kernel25FillInSLACRegularizerTermERNS_4core6TensorES5_S5_RKS4_S7_S7_S7_S7_fii, ptr noundef nonnull align 8 dereferenceable(160) %26, ptr noundef nonnull align 8 dereferenceable(32) @_ZN6open3d4core7Float32E)
  %27 = load ptr, ptr %14, align 8, !tbaa !4
  call void @_ZN6open3d4core12tensor_check18AssertTensorDtype_EPKciS3_RKNS0_6TensorERKNS0_5DtypeE(ptr noundef @.str, i32 noundef 146, ptr noundef @__PRETTY_FUNCTION__._ZN6open3d1t9pipelines6kernel25FillInSLACRegularizerTermERNS_4core6TensorES5_S5_RKS4_S7_S7_S7_S7_fii, ptr noundef nonnull align 8 dereferenceable(160) %27, ptr noundef nonnull align 8 dereferenceable(32) @_ZN6open3d4core7Float32E)
  call void @llvm.lifetime.start.p0(i64 8, ptr %23) #15
  %28 = load ptr, ptr %12, align 8, !tbaa !4
  %29 = load ptr, ptr %28, align 8, !tbaa !13
  %30 = getelementptr inbounds ptr, ptr %29, i64 2
  %31 = load ptr, ptr %30, align 8
  %32 = call i64 %31(ptr noundef nonnull align 8 dereferenceable(160) %28)
  store i64 %32, ptr %23, align 4
  call void @llvm.lifetime.start.p0(i64 8, ptr %24) #15
  %33 = load ptr, ptr %13, align 8, !tbaa !4
  %34 = load ptr, ptr %33, align 8, !tbaa !13
  %35 = getelementptr inbounds ptr, ptr %34, i64 2
  %36 = load ptr, ptr %35, align 8
  %37 = call i64 %36(ptr noundef nonnull align 8 dereferenceable(160) %33)
  store i64 %37, ptr %24, align 4
  %38 = call noundef zeroext i1 @_ZNK6open3d4core6DeviceneERKS1_(ptr noundef nonnull align 4 dereferenceable(8) %24, ptr noundef nonnull align 4 dereferenceable(8) %23)
  call void @llvm.lifetime.end.p0(i64 8, ptr %24) #15
  br i1 %38, label %39, label %40

39:                                               ; preds = %11
  call void @_ZN6open3d7utility6Logger9LogError_IJEEEvPKciS4_S4_DpOT_(ptr noundef @.str, i32 noundef 150, ptr noundef @__PRETTY_FUNCTION__._ZN6open3d1t9pipelines6kernel25FillInSLACRegularizerTermERNS_4core6TensorES5_S5_RKS4_S7_S7_S7_S7_fii, ptr noundef @.str.1) #16
  unreachable

40:                                               ; preds = %11
  %41 = load ptr, ptr %12, align 8, !tbaa !4
  %42 = call noundef zeroext i1 @_ZNK6open3d4core8IsDevice5IsCPUEv(ptr noundef nonnull align 8 dereferenceable(8) %41)
  br i1 %42, label %43, label %55

43:                                               ; preds = %40
  %44 = load ptr, ptr %12, align 8, !tbaa !4
  %45 = load ptr, ptr %13, align 8, !tbaa !4
  %46 = load ptr, ptr %14, align 8, !tbaa !4
  %47 = load ptr, ptr %15, align 8, !tbaa !4
  %48 = load ptr, ptr %16, align 8, !tbaa !4
  %49 = load ptr, ptr %17, align 8, !tbaa !4
  %50 = load ptr, ptr %18, align 8, !tbaa !4
  %51 = load ptr, ptr %19, align 8, !tbaa !4
  %52 = load float, ptr %20, align 4, !tbaa !11
  %53 = load i32, ptr %21, align 4, !tbaa !9
  %54 = load i32, ptr %22, align 4, !tbaa !9
  call void @_ZN6open3d1t9pipelines6kernel28FillInSLACRegularizerTermCPUERNS_4core6TensorES5_S5_RKS4_S7_S7_S7_S7_fii(ptr noundef nonnull align 8 dereferenceable(160) %44, ptr noundef nonnull align 8 dereferenceable(160) %45, ptr noundef nonnull align 8 dereferenceable(160) %46, ptr noundef nonnull align 8 dereferenceable(160) %47, ptr noundef nonnull align 8 dereferenceable(160) %48, ptr noundef nonnull align 8 dereferenceable(160) %49, ptr noundef nonnull align 8 dereferenceable(160) %50, ptr noundef nonnull align 8 dereferenceable(160) %51, float noundef %52, i32 noundef %53, i32 noundef %54)
  br label %60

55:                                               ; preds = %40
  %56 = load ptr, ptr %12, align 8, !tbaa !4
  %57 = call noundef zeroext i1 @_ZNK6open3d4core8IsDevice6IsCUDAEv(ptr noundef nonnull align 8 dereferenceable(8) %56)
  br i1 %57, label %58, label %59

58:                                               ; preds = %55
  call void @_ZN6open3d7utility6Logger9LogError_IJEEEvPKciS4_S4_DpOT_(ptr noundef @.str, i32 noundef 165, ptr noundef @__PRETTY_FUNCTION__._ZN6open3d1t9pipelines6kernel25FillInSLACRegularizerTermERNS_4core6TensorES5_S5_RKS4_S7_S7_S7_S7_fii, ptr noundef @.str.5) #16
  unreachable

59:                                               ; preds = %55
  call void @_ZN6open3d7utility6Logger9LogError_IJEEEvPKciS4_S4_DpOT_(ptr noundef @.str, i32 noundef 168, ptr noundef @__PRETTY_FUNCTION__._ZN6open3d1t9pipelines6kernel25FillInSLACRegularizerTermERNS_4core6TensorES5_S5_RKS4_S7_S7_S7_S7_fii, ptr noundef @.str.6) #16
  unreachable

60:                                               ; preds = %43
  call void @llvm.lifetime.end.p0(i64 8, ptr %23) #15
  ret void
}