; Function Attrs: mustprogress ssp uwtable
define void @_ZN6open3d1t9pipelines6kernel25FillInSLACRegularizerTermERNS_4core6TensorES5_S5_RKS4_S7_S7_S7_S7_fii(ptr noundef nonnull align 8 dereferenceable(160) %0, ptr noundef nonnull align 8 dereferenceable(160) %1, ptr noundef nonnull align 8 dereferenceable(160) %2, ptr noundef nonnull align 8 dereferenceable(160) %3, ptr noundef nonnull align 8 dereferenceable(160) %4, ptr noundef nonnull align 8 dereferenceable(160) %5, ptr noundef nonnull align 8 dereferenceable(160) %6, ptr noundef nonnull align 8 dereferenceable(160) %7, float noundef %8, i32 noundef %9, i32 noundef %10) local_unnamed_addr #0 {
  %12 = alloca %"class.open3d::core::Device", align 8
  %13 = alloca %"class.open3d::core::Device", align 8
  tail call void @_ZN6open3d4core12tensor_check18AssertTensorDtype_EPKciS3_RKNS0_6TensorERKNS0_5DtypeE(ptr noundef nonnull @.str, i32 noundef 144, ptr noundef nonnull @__PRETTY_FUNCTION__._ZN6open3d1t9pipelines6kernel25FillInSLACRegularizerTermERNS_4core6TensorES5_S5_RKS4_S7_S7_S7_S7_fii, ptr noundef nonnull align 8 dereferenceable(160) %0, ptr noundef nonnull align 8 dereferenceable(32) @_ZN6open3d4core7Float32E)
  tail call void @_ZN6open3d4core12tensor_check18AssertTensorDtype_EPKciS3_RKNS0_6TensorERKNS0_5DtypeE(ptr noundef nonnull @.str, i32 noundef 145, ptr noundef nonnull @__PRETTY_FUNCTION__._ZN6open3d1t9pipelines6kernel25FillInSLACRegularizerTermERNS_4core6TensorES5_S5_RKS4_S7_S7_S7_S7_fii, ptr noundef nonnull align 8 dereferenceable(160) %1, ptr noundef nonnull align 8 dereferenceable(32) @_ZN6open3d4core7Float32E)
  tail call void @_ZN6open3d4core12tensor_check18AssertTensorDtype_EPKciS3_RKNS0_6TensorERKNS0_5DtypeE(ptr noundef nonnull @.str, i32 noundef 146, ptr noundef nonnull @__PRETTY_FUNCTION__._ZN6open3d1t9pipelines6kernel25FillInSLACRegularizerTermERNS_4core6TensorES5_S5_RKS4_S7_S7_S7_S7_fii, ptr noundef nonnull align 8 dereferenceable(160) %2, ptr noundef nonnull align 8 dereferenceable(32) @_ZN6open3d4core7Float32E)
  call void @llvm.lifetime.start.p0(i64 8, ptr nonnull %12) #10
  %14 = load ptr, ptr %0, align 8, !tbaa !4
  %15 = getelementptr inbounds nuw i8, ptr %14, i64 16
  %16 = load ptr, ptr %15, align 8
  %17 = tail call i64 %16(ptr noundef nonnull align 8 dereferenceable(160) %0)
  store i64 %17, ptr %12, align 8
  call void @llvm.lifetime.start.p0(i64 8, ptr nonnull %13) #10
  %18 = load ptr, ptr %1, align 8, !tbaa !4
  %19 = getelementptr inbounds nuw i8, ptr %18, i64 16
  %20 = load ptr, ptr %19, align 8
  %21 = tail call i64 %20(ptr noundef nonnull align 8 dereferenceable(160) %1)
  store i64 %21, ptr %13, align 8
  %22 = call noundef zeroext i1 @_ZNK6open3d4core6DeviceneERKS1_(ptr noundef nonnull align 4 dereferenceable(8) %13, ptr noundef nonnull align 4 dereferenceable(8) %12)
  call void @llvm.lifetime.end.p0(i64 8, ptr nonnull %13) #10
  br i1 %22, label %23, label %24

23:                                               ; preds = %11
  call void @_ZN6open3d7utility6Logger9LogError_IJEEEvPKciS4_S4_DpOT_(ptr noundef nonnull @.str, i32 noundef 150, ptr noundef nonnull @__PRETTY_FUNCTION__._ZN6open3d1t9pipelines6kernel25FillInSLACRegularizerTermERNS_4core6TensorES5_S5_RKS4_S7_S7_S7_S7_fii, ptr noundef nonnull @.str.1) #11
  unreachable

24:                                               ; preds = %11
  %25 = load ptr, ptr %0, align 8, !tbaa !4
  %26 = getelementptr inbounds nuw i8, ptr %25, i64 16
  %27 = load ptr, ptr %26, align 8
  %28 = call i64 %27(ptr noundef nonnull align 8 dereferenceable(8) %0)
  %29 = and i64 %28, 4294967295
  %30 = icmp eq i64 %29, 0
  br i1 %30, label %31, label %32

31:                                               ; preds = %24
  call void @_ZN6open3d1t9pipelines6kernel28FillInSLACRegularizerTermCPUERNS_4core6TensorES5_S5_RKS4_S7_S7_S7_S7_fii(ptr noundef nonnull align 8 dereferenceable(160) %0, ptr noundef nonnull align 8 dereferenceable(160) %1, ptr noundef nonnull align 8 dereferenceable(160) %2, ptr noundef nonnull align 8 dereferenceable(160) %3, ptr noundef nonnull align 8 dereferenceable(160) %4, ptr noundef nonnull align 8 dereferenceable(160) %5, ptr noundef nonnull align 8 dereferenceable(160) %6, ptr noundef nonnull align 8 dereferenceable(160) %7, float noundef %8, i32 noundef %9, i32 noundef %10)
  call void @llvm.lifetime.end.p0(i64 8, ptr nonnull %12) #10
  ret void

32:                                               ; preds = %24
  %33 = load ptr, ptr %0, align 8, !tbaa !4
  %34 = getelementptr inbounds nuw i8, ptr %33, i64 16
  %35 = load ptr, ptr %34, align 8
  %36 = call i64 %35(ptr noundef nonnull align 8 dereferenceable(8) %0)
  %37 = and i64 %36, 4294967295
  %38 = icmp eq i64 %37, 1
  br i1 %38, label %39, label %40

39:                                               ; preds = %32
  call void @_ZN6open3d7utility6Logger9LogError_IJEEEvPKciS4_S4_DpOT_(ptr noundef nonnull @.str, i32 noundef 165, ptr noundef nonnull @__PRETTY_FUNCTION__._ZN6open3d1t9pipelines6kernel25FillInSLACRegularizerTermERNS_4core6TensorES5_S5_RKS4_S7_S7_S7_S7_fii, ptr noundef nonnull @.str.5) #11
  unreachable

40:                                               ; preds = %32
  call void @_ZN6open3d7utility6Logger9LogError_IJEEEvPKciS4_S4_DpOT_(ptr noundef nonnull @.str, i32 noundef 168, ptr noundef nonnull @__PRETTY_FUNCTION__._ZN6open3d1t9pipelines6kernel25FillInSLACRegularizerTermERNS_4core6TensorES5_S5_RKS4_S7_S7_S7_S7_fii, ptr noundef nonnull @.str.6) #11
  unreachable
}